(dp0
S'alignmentType'
p1
I01
sS'tmRNA'
p2
I00
sS'ORFs'
p3
I00
sS'tRNA'
p4
I00
sS'misc'
p5
I00
sS'newPhageNotify'
p6
I00
sS'transparency_adjustment'
p7
F1.0
sS'newVersion'
p8
I00
sS'phamColor'
p9
I00
s.